; Function Attrs: nounwind uwtable
define internal fastcc range(i32 -1, 1) i32 @H5A__read_api_common(i64 noundef %0, i64 noundef %1, ptr noundef %2, ptr noundef %3, ptr noundef writeonly %4) unnamed_addr #0 {
  %.not = icmp eq ptr %4, null
  %6 = tail call i32 @H5I_get_type(i64 noundef %1) #4
  %.not16 = icmp eq i32 %6, 3
  br i1 %.not16, label %11, label %7

7:                                                ; preds = %5
  %8 = load i64, ptr @H5E_ARGS_g, align 8
  %9 = load i64, ptr @H5E_BADTYPE_g, align 8
  %10 = tail call i32 (ptr, ptr, i32, i64, i64, ptr, ...) @H5E_printf_stack(ptr noundef nonnull @.str, ptr noundef nonnull @__func__.H5A__read_api_common, i32 noundef 981, i64 noundef %8, i64 noundef %9, ptr noundef nonnull @.str.95) #4
  br label %32

11:                                               ; preds = %5
  %12 = icmp eq ptr %2, null
  br i1 %12, label %13, label %17

13:                                               ; preds = %11
  %14 = load i64, ptr @H5E_ARGS_g, align 8
  %15 = load i64, ptr @H5E_BADVALUE_g, align 8
  %16 = tail call i32 (ptr, ptr, i32, i64, i64, ptr, ...) @H5E_printf_stack(ptr noundef nonnull @.str, ptr noundef nonnull @__func__.H5A__read_api_common, i32 noundef 983, i64 noundef %14, i64 noundef %15, ptr noundef nonnull @.str.96) #4
  br label %32

17:                                               ; preds = %11
  %18 = tail call ptr @H5I_object_verify(i64 noundef %0, i32 noundef 7) #4
  br i1 %.not, label %.cont, label %.else

.else:                                            ; preds = %17
  store ptr %18, ptr %4, align 8
  br label %.cont

.cont:                                            ; preds = %17, %.else
  %19 = icmp eq ptr %18, null
  br i1 %19, label %20, label %24

20:                                               ; preds = %.cont
  %21 = load i64, ptr @H5E_ARGS_g, align 8
  %22 = load i64, ptr @H5E_BADTYPE_g, align 8
  %23 = tail call i32 (ptr, ptr, i32, i64, i64, ptr, ...) @H5E_printf_stack(ptr noundef nonnull @.str, ptr noundef nonnull @__func__.H5A__read_api_common, i32 noundef 987, i64 noundef %21, i64 noundef %22, ptr noundef nonnull @.str.37) #4
  br label %32

24:                                               ; preds = %.cont
  %25 = load i64, ptr @H5P_LST_DATASET_XFER_ID_g, align 8
  %26 = tail call i32 @H5VL_attr_read(ptr noundef nonnull %18, i64 noundef %1, ptr noundef nonnull %2, i64 noundef %25, ptr noundef %3) #4
  %27 = icmp slt i32 %26, 0
  br i1 %27, label %28, label %32

28:                                               ; preds = %24
  %29 = load i64, ptr @H5E_ATTR_g, align 8
  %30 = load i64, ptr @H5E_READERROR_g, align 8
  %31 = tail call i32 (ptr, ptr, i32, i64, i64, ptr, ...) @H5E_printf_stack(ptr noundef nonnull @.str, ptr noundef nonnull @__func__.H5A__read_api_common, i32 noundef 991, i64 noundef %29, i64 noundef %30, ptr noundef nonnull @.str.98) #4
  br label %32

32:                                               ; preds = %24, %28, %20, %13, %7
  %.0 = phi i32 [ -1, %7 ], [ -1, %13 ], [ -1, %20 ], [ -1, %28 ], [ 0, %24 ]
  ret i32 %.0
}